target datalayout = "e-m:e-p270:32:32-p271:32:32-p272:64:64-i64:64-i128:128-f80:128-n8:16:32:64-S128"
target triple = "x86_64-pc-linux-gnu"

%"class.std::optional" = type { %"struct.std::_Optional_base" }
%"struct.std::_Optional_base" = type { %"struct.std::_Optional_payload" }
%"struct.std::_Optional_payload" = type { %"struct.std::_Optional_payload.base", [7 x i8] }
%"struct.std::_Optional_payload.base" = type { %"struct.std::_Optional_payload_base.base" }
%"struct.std::_Optional_payload_base.base" = type <{ %"union.std::_Optional_payload_base<std::__cxx11::basic_string<char>>::_Storage", i8 }>
%"union.std::_Optional_payload_base<std::__cxx11::basic_string<char>>::_Storage" = type { %"class.std::__cxx11::basic_string" }
%"class.std::__cxx11::basic_string" = type { %"struct.std::__cxx11::basic_string<char>::_Alloc_hider", i64, %union.anon }
%"struct.std::__cxx11::basic_string<char>::_Alloc_hider" = type { ptr }
%union.anon = type { i64, [8 x i8] }
%class.anon = type { i8 }
%"struct.std::_Optional_payload_base" = type <{ %"union.std::_Optional_payload_base<std::__cxx11::basic_string<char>>::_Storage", i8, [7 x i8] }>

@_ZZN3nix10getSelfExeB5cxx11EvE6cachedB5cxx11 = internal global %"class.std::optional" zeroinitializer, align 8
@_ZGVZN3nix10getSelfExeB5cxx11EvE6cachedB5cxx11 = internal global i64 0, align 8
@__dso_handle = external hidden global i8

; Function Attrs: mustprogress uwtable
define linkonce_odr void @_ZSt10_ConstructINSt7__cxx1112basic_stringIcSt11char_traitsIcESaIcEEEJRKS5_EEvPT_DpOT0_(ptr noundef %0, ptr noundef nonnull align 8 dereferenceable(32) %1) #3 comdat {
  %3 = alloca ptr, align 8
  %4 = alloca ptr, align 8
  store ptr %0, ptr %3, align 8
  store ptr %1, ptr %4, align 8
  %5 = load ptr, ptr %3, align 8
  %6 = load ptr, ptr %4, align 8
  call void @_ZNSt7__cxx1112basic_stringIcSt11char_traitsIcESaIcEEC2ERKS4_(ptr noundef nonnull align 8 dereferenceable(32) %5, ptr noundef nonnull align 8 dereferenceable(32) %6)
  ret void
}

; Function Attrs: mustprogress nounwind uwtable
define linkonce_odr void @_ZNSt22_Optional_payload_baseINSt7__cxx1112basic_stringIcSt11char_traitsIcESaIcEEEE8_StorageIS5_Lb0EED2Ev(ptr noundef nonnull align 8 dereferenceable(32) %0) unnamed_addr #2 comdat align 2 {
  %2 = alloca ptr, align 8
  store ptr %0, ptr %2, align 8
  ret void
}

; Function Attrs: mustprogress uwtable
define linkonce_odr void @_ZNSt22_Optional_payload_baseINSt7__cxx1112basic_stringIcSt11char_traitsIcESaIcEEEE12_M_constructIJRKS5_EEEvDpOT_(ptr noundef nonnull align 8 dereferenceable(33) %0, ptr noundef nonnull align 8 dereferenceable(32) %1) #3 comdat align 2 {
  %3 = alloca ptr, align 8
  %4 = alloca ptr, align 8
  store ptr %0, ptr %3, align 8
  store ptr %1, ptr %4, align 8
  %5 = load ptr, ptr %3, align 8
  %6 = getelementptr inbounds %"struct.std::_Optional_payload_base", ptr %5, i32 0, i32 0
  %7 = load ptr, ptr %4, align 8
  call void @_ZSt10_ConstructINSt7__cxx1112basic_stringIcSt11char_traitsIcESaIcEEEJRKS5_EEvPT_DpOT0_(ptr noundef %6, ptr noundef nonnull align 8 dereferenceable(32) %7)
  %8 = getelementptr inbounds %"struct.std::_Optional_payload_base", ptr %5, i32 0, i32 1
  store i8 1, ptr %8, align 8
  ret void
}

; Function Attrs: mustprogress nounwind uwtable
define linkonce_odr noundef nonnull align 8 dereferenceable(32) ptr @_ZNKSt22_Optional_payload_baseINSt7__cxx1112basic_stringIcSt11char_traitsIcESaIcEEEE6_M_getEv(ptr noundef nonnull align 8 dereferenceable(33) %0) #2 comdat align 2 {
  %2 = alloca ptr, align 8
  store ptr %0, ptr %2, align 8
  %3 = load ptr, ptr %2, align 8
  %4 = getelementptr inbounds %"struct.std::_Optional_payload_base", ptr %3, i32 0, i32 0
  ret ptr %4
}

; Function Attrs: mustprogress nounwind uwtable
define linkonce_odr void @_ZNSt22_Optional_payload_baseINSt7__cxx1112basic_stringIcSt11char_traitsIcESaIcEEEE8_StorageIS5_Lb0EEC2Ev(ptr noundef nonnull align 8 dereferenceable(32) %0) unnamed_addr #2 comdat align 2 {
  %2 = alloca ptr, align 8
  store ptr %0, ptr %2, align 8
  ret void
}

; Function Attrs: mustprogress uwtable
define linkonce_odr void @_ZNSt22_Optional_payload_baseINSt7__cxx1112basic_stringIcSt11char_traitsIcESaIcEEEEC2EbRKS6_(ptr noundef nonnull align 8 dereferenceable(33) %0, i1 noundef zeroext %1, ptr noundef nonnull align 8 dereferenceable(33) %2) unnamed_addr #3 comdat align 2 personality ptr @__gxx_personality_v0 {
  %4 = alloca ptr, align 8
  %5 = alloca i8, align 1
  %6 = alloca ptr, align 8
  %7 = alloca ptr, align 8
  %8 = alloca i32, align 4
  store ptr %0, ptr %4, align 8
  %9 = zext i1 %1 to i8
  store i8 %9, ptr %5, align 1
  store ptr %2, ptr %6, align 8
  %10 = load ptr, ptr %4, align 8
  %11 = getelementptr inbounds %"struct.std::_Optional_payload_base", ptr %10, i32 0, i32 0
  call void @_ZNSt22_Optional_payload_baseINSt7__cxx1112basic_stringIcSt11char_traitsIcESaIcEEEE8_StorageIS5_Lb0EEC2Ev(ptr noundef nonnull align 8 dereferenceable(32) %11) #1
  %12 = getelementptr inbounds %"struct.std::_Optional_payload_base", ptr %10, i32 0, i32 1
  store i8 0, ptr %12, align 8
  %13 = load ptr, ptr %6, align 8
  %14 = getelementptr inbounds %"struct.std::_Optional_payload_base", ptr %13, i32 0, i32 1
  %15 = load i8, ptr %14, align 8
  %16 = trunc i8 %15 to i1
  br i1 %16, label %17, label %25

17:                                               ; preds = %3
  %18 = load ptr, ptr %6, align 8
  %19 = call noundef nonnull align 8 dereferenceable(32) ptr @_ZNKSt22_Optional_payload_baseINSt7__cxx1112basic_stringIcSt11char_traitsIcESaIcEEEE6_M_getEv(ptr noundef nonnull align 8 dereferenceable(33) %18) #1
  invoke void @_ZNSt22_Optional_payload_baseINSt7__cxx1112basic_stringIcSt11char_traitsIcESaIcEEEE12_M_constructIJRKS5_EEEvDpOT_(ptr noundef nonnull align 8 dereferenceable(33) %10, ptr noundef nonnull align 8 dereferenceable(32) %19)
          to label %20 unwind label %21

20:                                               ; preds = %17
  br label %25

21:                                               ; preds = %17
  %22 = landingpad { ptr, i32 }
          cleanup
  %23 = extractvalue { ptr, i32 } %22, 0
  store ptr %23, ptr %7, align 8
  %24 = extractvalue { ptr, i32 } %22, 1
  store i32 %24, ptr %8, align 4
  call void @_ZNSt22_Optional_payload_baseINSt7__cxx1112basic_stringIcSt11char_traitsIcESaIcEEEE8_StorageIS5_Lb0EED2Ev(ptr noundef nonnull align 8 dereferenceable(32) %11) #1
  br label %26

25:                                               ; preds = %20, %3
  ret void

26:                                               ; preds = %21
  %27 = load ptr, ptr %7, align 8
  %28 = load i32, ptr %8, align 4
  %29 = insertvalue { ptr, i32 } poison, ptr %27, 0
  %30 = insertvalue { ptr, i32 } %29, i32 %28, 1
  resume { ptr, i32 } %30
}

; Function Attrs: mustprogress uwtable
define linkonce_odr void @_ZNSt17_Optional_payloadINSt7__cxx1112basic_stringIcSt11char_traitsIcESaIcEEELb1ELb0ELb0EECI2St22_Optional_payload_baseIS5_EEbRKS7_IS5_E(ptr noundef nonnull align 8 dereferenceable(33) %0, i1 noundef zeroext %1, ptr noundef nonnull align 8 dereferenceable(33) %2) unnamed_addr #3 comdat align 2 {
  %4 = alloca ptr, align 8
  %5 = alloca i8, align 1
  %6 = alloca ptr, align 8
  store ptr %0, ptr %4, align 8
  %7 = zext i1 %1 to i8
  store i8 %7, ptr %5, align 1
  store ptr %2, ptr %6, align 8
  %8 = load ptr, ptr %4, align 8
  %9 = load i8, ptr %5, align 1
  %10 = trunc i8 %9 to i1
  %11 = load ptr, ptr %6, align 8
  call void @_ZNSt22_Optional_payload_baseINSt7__cxx1112basic_stringIcSt11char_traitsIcESaIcEEEEC2EbRKS6_(ptr noundef nonnull align 8 dereferenceable(33) %8, i1 noundef zeroext %10, ptr noundef nonnull align 8 dereferenceable(33) %11)
  ret void
}

; Function Attrs: mustprogress uwtable
define linkonce_odr void @_ZNSt17_Optional_payloadINSt7__cxx1112basic_stringIcSt11char_traitsIcESaIcEEELb0ELb0ELb0EECI2St22_Optional_payload_baseIS5_EEbRKS7_IS5_E(ptr noundef nonnull align 8 dereferenceable(33) %0, i1 noundef zeroext %1, ptr noundef nonnull align 8 dereferenceable(33) %2) unnamed_addr #3 comdat align 2 {
  %4 = alloca ptr, align 8
  %5 = alloca i8, align 1
  %6 = alloca ptr, align 8
  store ptr %0, ptr %4, align 8
  %7 = zext i1 %1 to i8
  store i8 %7, ptr %5, align 1
  store ptr %2, ptr %6, align 8
  %8 = load ptr, ptr %4, align 8
  %9 = load i8, ptr %5, align 1
  %10 = trunc i8 %9 to i1
  %11 = load ptr, ptr %6, align 8
  call void @_ZNSt17_Optional_payloadINSt7__cxx1112basic_stringIcSt11char_traitsIcESaIcEEELb1ELb0ELb0EECI2St22_Optional_payload_baseIS5_EEbRKS7_IS5_E(ptr noundef nonnull align 8 dereferenceable(33) %8, i1 noundef zeroext %10, ptr noundef nonnull align 8 dereferenceable(33) %11)
  ret void
}

; Function Attrs: mustprogress uwtable
define linkonce_odr void @_ZNSt14_Optional_baseINSt7__cxx1112basic_stringIcSt11char_traitsIcESaIcEEELb0ELb0EEC2ERKS6_(ptr noundef nonnull align 8 dereferenceable(40) %0, ptr noundef nonnull align 8 dereferenceable(40) %1) unnamed_addr #3 comdat align 2 {
  %3 = alloca ptr, align 8
  %4 = alloca ptr, align 8
  store ptr %0, ptr %3, align 8
  store ptr %1, ptr %4, align 8
  %5 = load ptr, ptr %3, align 8
  %6 = getelementptr inbounds %"struct.std::_Optional_base", ptr %5, i32 0, i32 0
  %7 = load ptr, ptr %4, align 8
  %8 = getelementptr inbounds %"struct.std::_Optional_base", ptr %7, i32 0, i32 0
  %9 = getelementptr inbounds %"struct.std::_Optional_payload_base", ptr %8, i32 0, i32 1
  %10 = load i8, ptr %9, align 8
  %11 = trunc i8 %10 to i1
  %12 = load ptr, ptr %4, align 8
  %13 = getelementptr inbounds %"struct.std::_Optional_base", ptr %12, i32 0, i32 0
  call void @_ZNSt17_Optional_payloadINSt7__cxx1112basic_stringIcSt11char_traitsIcESaIcEEELb0ELb0ELb0EECI2St22_Optional_payload_baseIS5_EEbRKS7_IS5_E(ptr noundef nonnull align 8 dereferenceable(33) %6, i1 noundef zeroext %11, ptr noundef nonnull align 8 dereferenceable(33) %13)
  ret void
}

; Function Attrs: mustprogress uwtable
define linkonce_odr void @_ZNSt8optionalINSt7__cxx1112basic_stringIcSt11char_traitsIcESaIcEEEEC2ERKS6_(ptr noundef nonnull align 8 dereferenceable(40) %0, ptr noundef nonnull align 8 dereferenceable(40) %1) unnamed_addr #3 comdat align 2 {
  %3 = alloca ptr, align 8
  %4 = alloca ptr, align 8
  store ptr %0, ptr %3, align 8
  store ptr %1, ptr %4, align 8
  %5 = load ptr, ptr %3, align 8
  %6 = load ptr, ptr %4, align 8
  call void @_ZNSt14_Optional_baseINSt7__cxx1112basic_stringIcSt11char_traitsIcESaIcEEELb0ELb0EEC2ERKS6_(ptr noundef nonnull align 8 dereferenceable(40) %5, ptr noundef nonnull align 8 dereferenceable(40) %6)
  ret void
}

; Function Attrs: mustprogress uwtable
define void @_ZN3nix10getSelfExeB5cxx11Ev(ptr dead_on_unwind noalias writable sret(%"class.std::optional") align 8 %0) #3 personality ptr @__gxx_personality_v0 {
  %2 = alloca ptr, align 8
  %3 = alloca %class.anon, align 1
  %4 = alloca ptr, align 8
  %5 = alloca i32, align 4
  store ptr %0, ptr %2, align 8
  %6 = load atomic i8, ptr @_ZGVZN3nix10getSelfExeB5cxx11EvE6cachedB5cxx11 acquire, align 8
  %7 = icmp eq i8 %6, 0
  br i1 %7, label %8, label %14, !prof !4

8:                                                ; preds = %1
  %9 = call i32 @__cxa_guard_acquire(ptr @_ZGVZN3nix10getSelfExeB5cxx11EvE6cachedB5cxx11) #1
  %10 = icmp ne i32 %9, 0
  br i1 %10, label %11, label %14

11:                                               ; preds = %8
  invoke void @"_ZZN3nix10getSelfExeB5cxx11EvENK3$_0clB5cxx11Ev"(ptr dead_on_unwind writable sret(%"class.std::optional") align 8 @_ZZN3nix10getSelfExeB5cxx11EvE6cachedB5cxx11, ptr noundef nonnull align 1 dereferenceable(1) %3)
          to label %12 unwind label %15

12:                                               ; preds = %11
  %13 = call i32 @__cxa_atexit(ptr @_ZNSt8optionalINSt7__cxx1112basic_stringIcSt11char_traitsIcESaIcEEEED2Ev, ptr @_ZZN3nix10getSelfExeB5cxx11EvE6cachedB5cxx11, ptr @__dso_handle) #1
  call void @__cxa_guard_release(ptr @_ZGVZN3nix10getSelfExeB5cxx11EvE6cachedB5cxx11) #1
  br label %14

14:                                               ; preds = %12, %8, %1
  call void @_ZNSt8optionalINSt7__cxx1112basic_stringIcSt11char_traitsIcESaIcEEEEC2ERKS6_(ptr noundef nonnull align 8 dereferenceable(40) %0, ptr noundef nonnull align 8 dereferenceable(40) @_ZZN3nix10getSelfExeB5cxx11EvE6cachedB5cxx11)
  ret void

15:                                               ; preds = %11
  %16 = landingpad { ptr, i32 }
          cleanup
  %17 = extractvalue { ptr, i32 } %16, 0
  store ptr %17, ptr %4, align 8
  %18 = extractvalue { ptr, i32 } %16, 1
  store i32 %18, ptr %5, align 4
  call void @__cxa_guard_abort(ptr @_ZGVZN3nix10getSelfExeB5cxx11EvE6cachedB5cxx11) #1
  br label %19

19:                                               ; preds = %15
  %20 = load ptr, ptr %4, align 8
  %21 = load i32, ptr %5, align 4
  %22 = insertvalue { ptr, i32 } poison, ptr %20, 0
  %23 = insertvalue { ptr, i32 } %22, i32 %21, 1
  resume { ptr, i32 } %23
}